Certificate:
    Data:
        Version: 3 (0x2)
        Serial Number: 11495207477057128554 (0x9f872e4bd167886a)
    Signature Algorithm: sha1WithRSAEncryption
        Issuer: DC=example, CN=Test Certifying CA
        Validity
            Not Before: Apr 30 07:25:25 2015 GMT
            Not After : Apr 29 07:25:25 2016 GMT
        Subject: DC=example, CN=Test Certifying CA
        Subject Public Key Info:
            Public Key Algorithm: rsaEncryption
                Public-Key: (2048 bit)
                Modulus:
                    00:da:51:8f:66:8e:e5:c8:8a:b9:86:f8:57:b9:ab:
                    a8:82:6b:71:91:7a:05:24:47:a1:4b:11:bd:65:3a:
                    72:d0:cf:a2:b0:aa:66:a4:5d:99:9a:d3:03:c0:49:
                    49:41:fd:a0:12:c1:46:e7:c3:ae:5a:4f:cb:5f:67:
                    25:f6:fe:ef:fa:16:87:27:80:44:50:67:50:e2:ea:
                    94:c9:69:f6:68:30:6a:7d:61:01:84:f2:dc:04:7e:
                    72:65:79:25:08:f9:ee:81:26:72:6d:36:75:a6:55:
                    d2:86:c4:c1:bf:f3:c9:07:a0:c9:42:10:bd:bd:37:
                    21:4a:d9:bc:e3:b5:9b:bd:68:70:65:96:65:43:29:
                    54:f7:6e:1b:39:72:5a:65:80:25:f7:66:24:d3:66:
                    8a:5d:ba:1e:d3:ed:17:04:55:e9:75:31:6c:92:1b:
                    7d:e5:bb:27:3d:76:17:8e:d0:1a:04:aa:0d:55:ef:
                    06:46:7c:6b:3a:60:37:51:03:9a:1b:8d:44:61:f0:
                    98:1b:d4:69:c5:1f:d0:a0:a0:c8:cc:57:57:53:e3:
                    8f:fa:78:9a:1e:c3:53:96:7e:81:86:d5:4d:85:08:
                    11:90:05:17:51:30:d0:4c:c7:09:ef:a3:2e:0d:9e:
                    ee:f5:f7:46:76:3c:1b:f2:8b:cc:5a:e8:06:5e:a2:
                    07:2d
                Exponent: 65537 (0x10001)
        X509v3 extensions:
            X509v3 Subject Key Identifier: 
                BB:C6:A4:3F:FA:92:DA:71:FC:7A:32:E6:CD:01:F4:40:31:A3:BA:54
            X509v3 Authority Key Identifier: 
                keyid:BB:C6:A4:3F:FA:92:DA:71:FC:7A:32:E6:CD:01:F4:40:31:A3:BA:54
                DirName:/DC=example/CN=Test Certifying CA
                serial:9F:87:2E:4B:D1:67:88:6A

            X509v3 Key Usage: 
                Digital Signature, Non Repudiation, Key Encipherment, Data Encipherment, Key Agreement, Certificate Sign, CRL Sign
            X509v3 Basic Constraints: critical
                CA:TRUE
            Netscape Comment: 
                Testing CA Certificate
    Signature Algorithm: sha1WithRSAEncryption
         81:6b:88:14:74:00:a0:f2:98:5a:74:c8:82:31:a7:05:cc:c8:
         fd:f4:d8:2b:42:56:3e:cf:cc:05:d6:83:63:4c:bf:5c:58:7d:
         b0:b0:8d:dc:04:01:bc:59:69:d9:43:f8:70:1d:9f:c2:c2:13:
         9a:0f:1c:60:be:da:61:df:f5:95:e3:e3:bc:64:e1:73:77:46:
         ae:94:39:49:ee:73:07:33:6c:ab:8d:0c:5d:77:e1:dc:83:69:
         dc:c3:42:3b:b2:21:b5:1e:30:70:c5:c4:ff:d3:29:26:06:33:
         87:53:e8:85:4a:5a:cf:fc:5e:df:4d:3e:09:94:b7:ce:99:04:
         f7:93:f8:1c:44:de:c6:d7:e2:27:b8:25:9f:86:6c:c8:ce:f6:
         68:e0:09:a8:be:b8:9a:7c:4b:a8:5b:eb:5c:de:8b:d5:cc:53:
         e6:98:35:e1:01:12:1a:40:be:5e:da:84:c9:bf:9e:68:da:47:
         e7:33:72:60:8a:6f:0a:bc:4b:ca:60:1a:3e:10:05:14:2f:09:
         b7:f7:34:7c:77:8b:5e:cc:da:6c:e7:86:a0:87:e7:6c:96:d1:
         17:4c:d1:3e:96:b6:bb:be:b3:14:e0:01:82:15:14:24:9d:76:
         6c:54:d6:76:39:3b:15:3b:67:0a:10:a0:8b:17:a7:2e:b8:b4:
         0c:41:b2:3d
-----BEGIN CERTIFICATE-----
MIIDvzCCAqegAwIBAgIJAJ+HLkvRZ4hqMA0GCSqGSIb3DQEBBQUAMDYxFzAVBgoJ
kiaJk/IsZAEZFgdleGFtcGxlMRswGQYDVQQDExJUZXN0IENlcnRpZnlpbmcgQ0Ew
HhcNMTUwNDMwMDcyNTI1WhcNMTYwNDI5MDcyNTI1WjA2MRcwFQYKCZImiZPyLGQB
GRYHZXhhbXBsZTEbMBkGA1UEAxMSVGVzdCBDZXJ0aWZ5aW5nIENBMIIBIjANBgkq
hkiG9w0BAQEFAAOCAQ8AMIIBCgKCAQEA2lGPZo7lyIq5hvhXuauogmtxkXoFJEeh
SxG9ZTpy0M+isKpmpF2ZmtMDwElJQf2gEsFG58OuWk/LX2cl9v7v+haHJ4BEUGdQ
4uqUyWn2aDBqfWEBhPLcBH5yZXklCPnugSZybTZ1plXShsTBv/PJB6DJQhC9vTch
Stm847WbvWhwZZZlQylU924bOXJaZYAl92Yk02aKXboe0+0XBFXpdTFskht95bsn
PXYXjtAaBKoNVe8GRnxrOmA3UQOaG41EYfCYG9RpxR/QoKDIzFdXU+OP+niaHsNT
ln6BhtVNhQgRkAUXUTDQTMcJ76MuDZ7u9fdGdjwb8ovMWugGXqIHLQIDAQABo4HP
MIHMMB0GA1UdDgQWBBS7xqQ/+pLacfx6MubNAfRAMaO6VDBmBgNVHSMEXzBdgBS7
xqQ/+pLacfx6MubNAfRAMaO6VKE6pDgwNjEXMBUGCgmSJomT8ixkARkWB2V4YW1w
bGUxGzAZBgNVBAMTElRlc3QgQ2VydGlmeWluZyBDQYIJAJ+HLkvRZ4hqMAsGA1Ud
DwQEAwIB/jAPBgNVHRMBAf8EBTADAQH/MCUGCWCGSAGG+EIBDQQYFhZUZXN0aW5n
IENBIENlcnRpZmljYXRlMA0GCSqGSIb3DQEBBQUAA4IBAQCBa4gUdACg8phadMiC
MacFzMj99NgrQlY+z8wF1oNjTL9cWH2wsI3cBAG8WWnZQ/hwHZ/CwhOaDxxgvtph
3/WV4+O8ZOFzd0aulDlJ7nMHM2yrjQxdd+Hcg2ncw0I7siG1HjBwxcT/0ykmBjOH
U+iFSlrP/F7fTT4JlLfOmQT3k/gcRN7G1+InuCWfhmzIzvZo4AmovriafEuoW+tc
3ovVzFPmmDXhARIaQL5e2oTJv55o2kfnM3Jgim8KvEvKYBo+EAUULwm39zR8d4te
zNps54agh+dsltEXTNE+lra7vrMU4AGCFRQknXZsVNZ2OTsVO2cKEKCLF6cuuLQM
QbI9
-----END CERTIFICATE-----
Certificate:
    Data:
        Version: 3 (0x2)
        Serial Number: 1312681263782548200 (0x123794a78f11d2e8)
    Signature Algorithm: sha1WithRSAEncryption
        Issuer: DC=example, CN=Test Certifying CA
        Validity
            Not Before: Apr 30 07:25:26 2015 GMT
            Not After : Apr 29 07:25:26 2016 GMT
        Subject: DC=example/mail=test@example, CN=Test Certifying Intermediate CA
        Subject Public Key Info:
            Public Key Algorithm: rsaEncryption
                Public-Key: (2048 bit)
                Modulus:
                    00:db:0e:cc:e1:54:c4:0a:85:c2:83:d9:09:4c:d8:
                    ba:ed:16:5d:04:29:1e:7d:90:31:14:7a:71:ba:3f:
                    ea:cf:50:4c:3b:74:8a:82:24:5d:36:2c:e6:46:28:
                    97:a6:ca:a3:5a:2b:46:e9:d2:09:0c:1c:11:ea:6b:
                    7a:d4:24:68:eb:39:49:5a:c9:ef:f5:cc:cd:30:d5:
                    2f:74:0e:13:b6:08:c1:e9:35:4a:9e:6d:c3:2b:3c:
                    8b:e6:fc:ed:29:97:73:7b:9b:c8:4e:ca:7a:88:6f:
                    77:7d:72:4c:71:28:55:c2:b8:62:84:90:31:f0:f5:
                    ff:56:30:f1:53:eb:ea:ce:c7:4f:73:fd:b7:b9:cc:
                    92:7a:57:72:f4:f2:46:eb:98:76:8d:96:a2:54:89:
                    e2:71:ab:17:20:18:8b:ce:99:cd:ae:e1:df:32:e9:
                    81:0f:1f:bf:7d:04:73:40:2b:6b:f5:eb:7c:5e:a7:
                    5c:73:e6:91:1d:a9:39:b4:95:ee:dc:36:9f:94:65:
                    c7:2b:f5:98:4a:a0:38:32:3c:c2:9f:c9:8a:f5:25:
                    b9:11:69:92:9a:6b:83:79:3a:a6:51:00:47:19:7a:
                    56:86:72:95:60:6e:c6:21:bb:d0:02:e3:4a:cf:f4:
                    99:79:82:22:27:9d:17:71:92:bd:c6:fe:3c:8c:bb:
                    9f:1b
                Exponent: 65537 (0x10001)
        X509v3 extensions:
            X509v3 Certificate Policies: 
                Policy: X509v3 Any Policy

            X509v3 Subject Key Identifier: 
                76:58:B1:E3:21:FE:32:48:50:32:59:01:DA:86:32:7C:57:21:F9:32
            X509v3 Authority Key Identifier: 
                keyid:BB:C6:A4:3F:FA:92:DA:71:FC:7A:32:E6:CD:01:F4:40:31:A3:BA:54
                DirName:/DC=example/CN=Test Certifying CA
                serial:9F:87:2E:4B:D1:67:88:6A

            X509v3 Key Usage: critical
                Digital Signature, Non Repudiation, Key Encipherment, Data Encipherment, Key Agreement, Certificate Sign, CRL Sign
            X509v3 Basic Constraints: critical
                CA:TRUE
            Netscape Comment: 
                Testing CA Certificate for Test Certifying Intermediate CA
    Signature Algorithm: sha1WithRSAEncryption
         a1:98:70:96:51:92:89:fa:a5:dc:c8:ea:62:83:71:79:7c:d4:
         9d:09:22:b8:55:62:a2:bb:ee:10:d1:c4:93:b4:51:ba:fb:0f:
         0a:47:c6:65:0f:15:40:50:2d:40:7a:4a:65:3c:c4:99:7d:55:
         84:c8:d2:51:4d:fe:d1:90:02:04:11:cb:50:3e:29:56:a6:58:
         5d:13:ea:6d:4c:42:d1:a0:ca:e3:7e:0a:a8:bb:bc:a0:ca:53:
         a8:44:d4:bc:86:30:ef:7c:77:3a:61:95:15:78:ec:d5:eb:25:
         f7:8a:c4:38:65:2f:20:c8:04:4f:c7:7e:72:16:db:75:5a:93:
         4b:0e:ab:05:a5:ea:8f:f3:67:b6:4f:86:07:30:55:1b:d3:a8:
         e4:e1:57:7d:a1:c7:ee:35:a4:ba:3b:81:0c:21:ba:68:66:77:
         4d:7f:24:37:99:00:d0:e8:c9:8a:59:74:ae:79:39:60:38:29:
         4b:71:f2:6f:48:82:0a:5b:71:b0:a3:8e:ca:a4:8b:be:dc:69:
         66:ce:72:53:d6:d8:15:aa:15:e1:0b:0d:af:c0:55:a4:66:61:
         bb:88:6e:1e:ce:c1:cc:43:5d:44:f0:5b:90:3b:b5:b3:eb:28:
         65:3f:43:a3:52:dc:8c:4f:ad:4c:c4:8f:22:18:08:7d:e8:f2:
         ae:5c:39:e0
-----BEGIN CERTIFICATE-----
MIIEJTCCAw2gAwIBAgIIEjeUp48R0ugwDQYJKoZIhvcNAQEFBQAwNjEXMBUGCgmS
JomT8ixkARkWB2V4YW1wbGUxGzAZBgNVBAMTElRlc3QgQ2VydGlmeWluZyBDQTAe
Fw0xNTA0MzAwNzI1MjZaFw0xNjA0MjkwNzI1MjZaMGExFzAVBgoJkiaJk/IsZAEZ
FgdleGFtcGxlMRwwGgYKCZImiZPyLGQBAxQMdGVzdEBleGFtcGxlMSgwJgYDVQQD
Ex9UZXN0IENlcnRpZnlpbmcgSW50ZXJtZWRpYXRlIENBMIIBIjANBgkqhkiG9w0B
AQEFAAOCAQ8AMIIBCgKCAQEA2w7M4VTECoXCg9kJTNi67RZdBCkefZAxFHpxuj/q
z1BMO3SKgiRdNizmRiiXpsqjWitG6dIJDBwR6mt61CRo6zlJWsnv9czNMNUvdA4T
tgjB6TVKnm3DKzyL5vztKZdze5vITsp6iG93fXJMcShVwrhihJAx8PX/VjDxU+vq
zsdPc/23ucySeldy9PJG65h2jZaiVInicasXIBiLzpnNruHfMumBDx+/fQRzQCtr
9et8Xqdcc+aRHak5tJXu3DaflGXHK/WYSqA4MjzCn8mK9SW5EWmSmmuDeTqmUQBH
GXpWhnKVYG7GIbvQAuNKz/SZeYIiJ50XcZK9xv48jLufGwIDAQABo4IBCjCCAQYw
EQYDVR0gBAowCDAGBgRVHSAAMB0GA1UdDgQWBBR2WLHjIf4ySFAyWQHahjJ8VyH5
MjBmBgNVHSMEXzBdgBS7xqQ/+pLacfx6MubNAfRAMaO6VKE6pDgwNjEXMBUGCgmS
JomT8ixkARkWB2V4YW1wbGUxGzAZBgNVBAMTElRlc3QgQ2VydGlmeWluZyBDQYIJ
AJ+HLkvRZ4hqMA4GA1UdDwEB/wQEAwIB/jAPBgNVHRMBAf8EBTADAQH/MEkGCWCG
SAGG+EIBDQQ8FjpUZXN0aW5nIENBIENlcnRpZmljYXRlIGZvciBUZXN0IENlcnRp
ZnlpbmcgSW50ZXJtZWRpYXRlIENBMA0GCSqGSIb3DQEBBQUAA4IBAQChmHCWUZKJ
+qXcyOpig3F5fNSdCSK4VWKiu+4Q0cSTtFG6+w8KR8ZlDxVAUC1AekplPMSZfVWE
yNJRTf7RkAIEEctQPilWplhdE+ptTELRoMrjfgqou7ygylOoRNS8hjDvfHc6YZUV
eOzV6yX3isQ4ZS8gyARPx35yFtt1WpNLDqsFpeqP82e2T4YHMFUb06jk4Vd9ocfu
NaS6O4EMIbpoZndNfyQ3mQDQ6MmKWXSueTlgOClLcfJvSIIKW3Gwo47KpIu+3Glm
znJT1tgVqhXhCw2vwFWkZmG7iG4ezsHMQ11E8FuQO7Wz6yhlP0OjUtyMT61MxI8i
GAh96PKuXDng
-----END CERTIFICATE-----
