-----BEGIN RSA PRIVATE KEY-----
MIIEpQIBAAKCAQEAzLCnMiCJV4BJrzJXtx/Px3aMIa6Y/6uQGcSGzHfi0l09mhUv
BmvJDosXjwTWFuExr2pjn0+9OSI0w8DF5gY9a33PoRHIQ5HB8BkQGJs+vzEBw4mt
NqciIGheW0t348mHlHeMjx2JOPiUSOV0pfD73xQcaLhlRXr7hN8J+g9IiIYg3Mry
1r943Qx9teNfoT2h+Q6QgVr3GmzgS3esp+9gcfmIROsX8Cz3rLbYvFLz7MG2kYLg
GU6tlwbylaR8Balb/l378UT6ceUkQhh57a2rTzD3RkeKagBVxphnXOn4xVdph74E
yzB+gS/eQAphblNiLdVh+HmFCACJtvrQK0Ra+QIDAQABAoIBAAjviU0B6Jz+R7kz
PGsNI3f0r+dkhN9ccPz+/Fd+wFMoqODKHfRszikpX0zqDCKRkCa1QUYaKAuPd7g3
+SuyiAniQycn7JMukMXXgkFgvZuBGy+bGgmxwCakB8J6h/BUwutzUJqK0ou/JlIM
WkxIOeaiLR9RNXKUDNjfF8Nn2WXESSGxrLfwBZiG1m6CYhQgXsw6Ly/B25QveRBd
Q2Wn/sK+FmHn7yrKDv2gTDfT+Z80Xutig9G1EQWH1zZysBv0uAegbu5etoYqGG8e
6ZYhS0znoZO8Bj48FOnAQaCYC998BOjQrYhpI8za+seS4L0gOiRpbXHLYE/Ey7JZ
Wzdg5+UCgYEA/Yt2ExplohJ9ArbJiwLEVV2udPbHiI8WBpZuLP8zEe+nwntK2xJS
1WjgtLb9gn7U8QJETLayaKrZXaPlgKcFFi9bPxERcTJ+XE0SS/IEOR7Ua3qEpK0Q
1Pwzs4G8FdnZNVSpuZNFZRRVThgrjaLS+T/m6Mr7UGrp9NsetRkXuwcCgYEAzqwU
rjLvIdCyHNVUp76OgzmqbYJt6PKu4CoL75rUyWMxulW41obylNOaj74XTePb8ENT
w5g3/L+4HlvJq2g7ObKxnqZAKYQQ6r7Ey+j4r6SwytiXrlPEuAOlF/8t2DlwY4yB
hExZUZ5a/5jpzihLagkVDT71HSg4AUtvhFJ/uf8CgYEApkA1Ky+K5uwSlp3+p60n
ygYEp+NNUQjp22X2VoD8Hs2zhf3MRrvMHu2HMlgvAMtjm6jt2hOOBr3Ii/M1QNfD
qRliTodFlaETZDiRP8Uw6beCd/s9ULG+sLmyuQjfqMBRAfxC0lF0FmRvzyZgIJ5c
kl1JbunyQnfocsrfZsZOXi8CgYEAoi98ky+5ZYoHHIV1R6ZM5EIOsp2WbyZzgcq9
TyzsK5ZCYf3/baq9F3nvYzpDw4Y7BRNw2p/L3/b8ICbb3j2PrLnElcHVvD69n9pR
ScvrzLqrWqQadF2clOOXXXuNmI+K2TRcN1xLA7gHpWl0oaoRdIboFFsBs/3p5Woz
e13aijUCgYEAqJ7SI3mW4TiA+wRxbVf+Agxwg5/Oudxlp4taHm9WjiMs1D3cswzi
awhFcEaur+S4oMeDRQBFli3tCo3u70yXsn3OPq5LuPzC71u1sugdVMzmbnY6JKv0
Z3CXTHz9hUsD1sXcT+Xcnfrt6Lyp93HSO+UG/VT2mugA2Uw5hQpQYkA=
-----END RSA PRIVATE KEY-----
Certificate:
    Data:
        Version: 3 (0x2)
        Serial Number: 2297952524128001429 (0x1fe3f7a5475c9d95)
    Signature Algorithm: sha1WithRSAEncryption
        Issuer: DC=example/mail=test@example, CN=Test Certifying Intermediate CA
        Validity
            Not Before: Apr 30 07:28:24 2015 GMT
            Not After : Apr 29 07:28:24 2016 GMT
        Subject: DC=example/mail=test@example.com, CN=www.example.com
        Subject Public Key Info:
            Public Key Algorithm: rsaEncryption
                Public-Key: (2048 bit)
                Modulus:
                    00:cc:b0:a7:32:20:89:57:80:49:af:32:57:b7:1f:
                    cf:c7:76:8c:21:ae:98:ff:ab:90:19:c4:86:cc:77:
                    e2:d2:5d:3d:9a:15:2f:06:6b:c9:0e:8b:17:8f:04:
                    d6:16:e1:31:af:6a:63:9f:4f:bd:39:22:34:c3:c0:
                    c5:e6:06:3d:6b:7d:cf:a1:11:c8:43:91:c1:f0:19:
                    10:18:9b:3e:bf:31:01:c3:89:ad:36:a7:22:20:68:
                    5e:5b:4b:77:e3:c9:87:94:77:8c:8f:1d:89:38:f8:
                    94:48:e5:74:a5:f0:fb:df:14:1c:68:b8:65:45:7a:
                    fb:84:df:09:fa:0f:48:88:86:20:dc:ca:f2:d6:bf:
                    78:dd:0c:7d:b5:e3:5f:a1:3d:a1:f9:0e:90:81:5a:
                    f7:1a:6c:e0:4b:77:ac:a7:ef:60:71:f9:88:44:eb:
                    17:f0:2c:f7:ac:b6:d8:bc:52:f3:ec:c1:b6:91:82:
                    e0:19:4e:ad:97:06:f2:95:a4:7c:05:a9:5b:fe:5d:
                    fb:f1:44:fa:71:e5:24:42:18:79:ed:ad:ab:4f:30:
                    f7:46:47:8a:6a:00:55:c6:98:67:5c:e9:f8:c5:57:
                    69:87:be:04:cb:30:7e:81:2f:de:40:0a:61:6e:53:
                    62:2d:d5:61:f8:79:85:08:00:89:b6:fa:d0:2b:44:
                    5a:f9
                Exponent: 65537 (0x10001)
        X509v3 extensions:
            X509v3 Certificate Policies: 
                Policy: X509v3 Any Policy

            X509v3 Subject Key Identifier: 
                03:DD:9D:CA:D5:3C:E1:20:6C:72:7B:86:40:D5:EA:30:5D:AB:DD:FC
            X509v3 Authority Key Identifier: 
                keyid:76:58:B1:E3:21:FE:32:48:50:32:59:01:DA:86:32:7C:57:21:F9:32
                DirName:/DC=example/CN=Test Certifying CA
                serial:12:37:94:A7:8F:11:D2:E8

            X509v3 Subject Alternative Name: 
                DNS:*.example.com, DNS:example.com
            X509v3 Basic Constraints: 
                CA:FALSE
            Netscape Comment: 
                Testing Certificate for www.example.com
    Signature Algorithm: sha1WithRSAEncryption
         ac:b3:df:8e:35:9b:86:d4:bb:95:93:47:d1:fa:c2:a4:ea:d0:
         39:67:77:39:01:c6:61:06:a4:02:e8:b5:c9:0e:cf:72:e3:18:
         bd:1e:89:d8:41:be:39:ca:c1:c2:33:45:4d:4d:31:c8:a0:25:
         e3:c7:fb:fa:fd:fc:fe:b7:53:9a:1c:6a:3f:d9:3e:e5:96:1b:
         e3:c1:16:36:c0:25:92:bb:8d:7b:a6:e2:52:1a:82:53:ae:f1:
         2d:81:6a:27:70:64:0b:7d:b2:d3:85:7e:82:f3:03:41:41:c1:
         22:1e:c6:4f:8c:79:7e:4c:51:0a:28:71:98:67:65:a9:bc:30:
         4b:d7:c2:ae:73:7b:b2:39:09:c9:df:32:5c:83:b3:9b:55:39:
         1b:6f:f7:5c:95:14:56:b8:b0:6b:c5:81:f1:3b:e2:6a:d9:e6:
         43:2e:53:7e:bb:74:25:a2:ad:47:0d:7f:1c:90:b3:7e:72:8e:
         d3:9b:d9:a9:a8:cf:92:00:72:3c:ec:ba:10:a3:73:a7:9a:ce:
         21:bd:86:a1:c6:b4:45:43:ed:fc:f3:36:84:29:41:bf:9c:b1:
         86:d9:65:96:40:8e:5c:6b:e5:2a:84:21:08:fa:11:bc:6f:1b:
         65:41:c6:c1:a1:89:47:ce:79:c2:b3:93:b6:05:ad:67:f2:80:
         de:d0:f8:12
-----BEGIN CERTIFICATE-----
MIIEQTCCAymgAwIBAgIIH+P3pUdcnZUwDQYJKoZIhvcNAQEFBQAwYTEXMBUGCgmS
JomT8ixkARkWB2V4YW1wbGUxHDAaBgoJkiaJk/IsZAEDFAx0ZXN0QGV4YW1wbGUx
KDAmBgNVBAMTH1Rlc3QgQ2VydGlmeWluZyBJbnRlcm1lZGlhdGUgQ0EwHhcNMTUw
NDMwMDcyODI0WhcNMTYwNDI5MDcyODI0WjBVMRcwFQYKCZImiZPyLGQBGRYHZXhh
bXBsZTEgMB4GCgmSJomT8ixkAQMUEHRlc3RAZXhhbXBsZS5jb20xGDAWBgNVBAMT
D3d3dy5leGFtcGxlLmNvbTCCASIwDQYJKoZIhvcNAQEBBQADggEPADCCAQoCggEB
AMywpzIgiVeASa8yV7cfz8d2jCGumP+rkBnEhsx34tJdPZoVLwZryQ6LF48E1hbh
Ma9qY59PvTkiNMPAxeYGPWt9z6ERyEORwfAZEBibPr8xAcOJrTanIiBoXltLd+PJ
h5R3jI8diTj4lEjldKXw+98UHGi4ZUV6+4TfCfoPSIiGINzK8ta/eN0MfbXjX6E9
ofkOkIFa9xps4Et3rKfvYHH5iETrF/As96y22LxS8+zBtpGC4BlOrZcG8pWkfAWp
W/5d+/FE+nHlJEIYee2tq08w90ZHimoAVcaYZ1zp+MVXaYe+BMswfoEv3kAKYW5T
Yi3VYfh5hQgAibb60CtEWvkCAwEAAaOCAQcwggEDMBEGA1UdIAQKMAgwBgYEVR0g
ADAdBgNVHQ4EFgQUA92dytU84SBscnuGQNXqMF2r3fwwZQYDVR0jBF4wXIAUdlix
4yH+MkhQMlkB2oYyfFch+TKhOqQ4MDYxFzAVBgoJkiaJk/IsZAEZFgdleGFtcGxl
MRswGQYDVQQDExJUZXN0IENlcnRpZnlpbmcgQ0GCCBI3lKePEdLoMCUGA1UdEQQe
MByCDSouZXhhbXBsZS5jb22CC2V4YW1wbGUuY29tMAkGA1UdEwQCMAAwNgYJYIZI
AYb4QgENBCkWJ1Rlc3RpbmcgQ2VydGlmaWNhdGUgZm9yIHd3dy5leGFtcGxlLmNv
bTANBgkqhkiG9w0BAQUFAAOCAQEArLPfjjWbhtS7lZNH0frCpOrQOWd3OQHGYQak
Aui1yQ7PcuMYvR6J2EG+OcrBwjNFTU0xyKAl48f7+v38/rdTmhxqP9k+5ZYb48EW
NsAlkruNe6biUhqCU67xLYFqJ3BkC32y04V+gvMDQUHBIh7GT4x5fkxRCihxmGdl
qbwwS9fCrnN7sjkJyd8yXIOzm1U5G2/3XJUUVriwa8WB8TviatnmQy5Tfrt0JaKt
Rw1/HJCzfnKO05vZqajPkgByPOy6EKNzp5rOIb2Goca0RUPt/PM2hClBv5yxhtll
lkCOXGvlKoQhCPoRvG8bZUHGwaGJR855wrOTtgWtZ/KA3tD4Eg==
-----END CERTIFICATE-----
