-----BEGIN RSA PRIVATE KEY-----
MIIEpAIBAAKCAQEA2R1bz4vV18ciQcK8imZNgV8rh/+xPsNRYtNEIoGsP767Wt6X
2lp29gAxRPhqplsqoGstmLznmh9nTII3UVh+ZEOejMy5qrjp8p17ow2A/bgSr+4y
nqJDegNa0GY9D8GyGZgHJVduePvJ3czba+ugo2+R2UZR7SRdPQfYjdFOAXMhsQr+
NzeMXiqkyKxItkm/FWeZhDnvYuPaZlecjihqFe/mCOsXnyF2cCEN5X61ywYPWge6
/dDfHcvwWTsB8M782PT2zWWg9Id5x9NaLtomUeikdJYuHFgTihy5q/0TgSXSo1yS
baUuHhhDPIn4dbbG81yUnXOxhqgaHjYrztbD/QIDAQABAoIBAQDV9EeQfKXMERHi
KgxweqYwMmAMkl3Rktq1/6mqM41R+BxbTPXqGLIYdFIZPJCkxTx5f4UcejPlvsKm
M8Bdqk5LchNhfzIMWlM5YhX/tYQDA41uz9YUW6URLRMmQUo1J9Thwd5w3vsfwEjL
CWDFthrEVGMu8Uw03FwBk6TFBJjRdRneYlDByrRTqqY4iG7gvfaugQmk5VTOc1ld
gH+nh5E0x5amxT4R+kE9T84YOP4v0aGcHdnw5+bmeTscOsgf1ikalI8QoEdaAq9E
H7tq4hgYu7STissOz89O59sE2MrLsuPv9yGFGQ0/jZeJfzAsvwF4sQxClSpiazh4
ZJgIKCjFAoGBAPEBixHD0LJW2yRJydLP8fifJw299pDhjXCs/5vGnI7FCRr28PHi
0+aVUPl3bwJ/ydynto1PTaBKDN0PqQko2SaT2XW12shX0IGs9ZVEi3xSl94M3eyz
poZeT+ItDEvJUI2ATH7r5QRynsyYaFWInC2wdQc5cun8mI/bAcPgs6hbAoGBAOaf
TXFjK/i4MP4IB1jN2sWx7fxIJ/CxxIvltUroeTYrxsuFS4rmsAUp8qCh9dCFOUBM
M5Nsga81u7cySWdHsQ1EGRVvl0bpBwTTacaR2dwyXQGg8OauVvPIEWjTP9JRzsdV
5DnIAR8krtdBtYTE58XWJSjH1f9PFmXnPPtue7SHAoGAZ1mKEawvKsskXoNmEQkr
crqNPM9hlO+kf9UwJ9Ub/f1w0idjW9cxl4ggmVomOKQkJIOnPSHs3/fhXEsC6fKi
bHCqqFe74n4F5BYPmlsylbW1ent6D69akfSPvSYkR7uk14lVRHhUVXvxrTsOQt+6
Wb158gcoyD6SDd6U+zK42FECgYA1a99XjZ5o7dnDbn6tLnon41B6aQh/c95QfbRi
FrnFN5zEFitqkIdjmtTuKrYzSDj70Or9klv0ByFljUt9lhjINucMlR3Yui/7CTHu
Ymix3iS3NN24wde4fraxroWRJYwdlqLYU6EW4rtxd3IhwC7kH/fZm3jRvDM3BbqV
j4EuTwKBgQDPgRPdsLWbDXCX/256n7Arc+xC6IWV2MVbu0i8U8e5TJcft6W3idLG
0o19d4/tH3YXgK8Wb8h03yozy4dGM69gVIGoMuzdDSjffS8f9fyPS/7H1hYaAS92
M3jh2P7tE1flVSHyp203LOQb5Bkq+MfM8AYjK8Czgktmgsd/ja+eqA==
-----END RSA PRIVATE KEY-----
Certificate:
    Data:
        Version: 3 (0x2)
        Serial Number: 2297952524128001430 (0x1fe3f7a5475c9d96)
    Signature Algorithm: sha1WithRSAEncryption
        Issuer: DC=example/mail=test@example, CN=Test Certifying Intermediate CA
        Validity
            Not Before: Apr 30 07:30:04 2015 GMT
            Not After : Apr 29 07:30:04 2016 GMT
        Subject: DC=example/mail=test@example.org, CN=www.example.org
        Subject Public Key Info:
            Public Key Algorithm: rsaEncryption
                Public-Key: (2048 bit)
                Modulus:
                    00:d9:1d:5b:cf:8b:d5:d7:c7:22:41:c2:bc:8a:66:
                    4d:81:5f:2b:87:ff:b1:3e:c3:51:62:d3:44:22:81:
                    ac:3f:be:bb:5a:de:97:da:5a:76:f6:00:31:44:f8:
                    6a:a6:5b:2a:a0:6b:2d:98:bc:e7:9a:1f:67:4c:82:
                    37:51:58:7e:64:43:9e:8c:cc:b9:aa:b8:e9:f2:9d:
                    7b:a3:0d:80:fd:b8:12:af:ee:32:9e:a2:43:7a:03:
                    5a:d0:66:3d:0f:c1:b2:19:98:07:25:57:6e:78:fb:
                    c9:dd:cc:db:6b:eb:a0:a3:6f:91:d9:46:51:ed:24:
                    5d:3d:07:d8:8d:d1:4e:01:73:21:b1:0a:fe:37:37:
                    8c:5e:2a:a4:c8:ac:48:b6:49:bf:15:67:99:84:39:
                    ef:62:e3:da:66:57:9c:8e:28:6a:15:ef:e6:08:eb:
                    17:9f:21:76:70:21:0d:e5:7e:b5:cb:06:0f:5a:07:
                    ba:fd:d0:df:1d:cb:f0:59:3b:01:f0:ce:fc:d8:f4:
                    f6:cd:65:a0:f4:87:79:c7:d3:5a:2e:da:26:51:e8:
                    a4:74:96:2e:1c:58:13:8a:1c:b9:ab:fd:13:81:25:
                    d2:a3:5c:92:6d:a5:2e:1e:18:43:3c:89:f8:75:b6:
                    c6:f3:5c:94:9d:73:b1:86:a8:1a:1e:36:2b:ce:d6:
                    c3:fd
                Exponent: 65537 (0x10001)
        X509v3 extensions:
            X509v3 Certificate Policies: 
                Policy: X509v3 Any Policy

            X509v3 Subject Key Identifier: 
                73:5E:A6:B0:DB:6E:4B:27:CC:84:00:C7:93:C9:10:DC:7F:67:9B:17
            X509v3 Authority Key Identifier: 
                keyid:76:58:B1:E3:21:FE:32:48:50:32:59:01:DA:86:32:7C:57:21:F9:32
                DirName:/DC=example/CN=Test Certifying CA
                serial:12:37:94:A7:8F:11:D2:E8

            X509v3 Subject Alternative Name: 
                DNS:*.example.org, DNS:example.org
            X509v3 Basic Constraints: 
                CA:FALSE
            Netscape Comment: 
                Testing Certificate for www.example.org
    Signature Algorithm: sha1WithRSAEncryption
         50:5f:96:b4:d0:e6:30:43:b0:c2:46:83:6b:42:37:14:45:ca:
         7a:d4:90:68:b1:7e:17:5a:31:80:8a:bb:0c:c6:f7:ac:01:e9:
         83:c8:c1:bc:80:52:98:25:7c:06:bd:17:7f:52:46:d8:4c:89:
         e0:bb:35:2e:32:6e:9f:ad:aa:08:c3:ef:16:48:ca:aa:21:ed:
         f6:60:1f:ee:df:fc:0d:77:22:cd:a0:11:00:e3:1a:f7:3e:89:
         fb:8f:4c:ed:ca:2e:14:95:b1:e2:38:ae:50:36:73:6f:4d:b0:
         3b:78:00:f7:5e:df:c8:af:b6:c3:0d:99:d7:b4:34:50:41:55:
         aa:a5:ee:9f:5b:9d:b3:35:61:41:fe:73:56:ec:7c:31:02:9e:
         77:95:b0:6c:6d:ca:78:c9:15:62:df:4c:4e:7c:12:05:a6:99:
         fa:4d:1e:78:db:b4:c4:02:1f:3b:88:db:bf:c6:9a:b3:93:cb:
         dc:7e:a5:1b:66:c2:72:c8:be:15:f4:fc:94:f0:24:cd:48:3e:
         12:95:bc:1e:3a:82:4f:5f:65:ae:7f:2a:9a:d2:f1:d4:42:ec:
         fd:58:6a:b1:5f:41:18:f9:1c:8f:bf:1e:de:7c:16:49:b5:92:
         a2:40:a0:e2:f3:b8:90:b6:0f:14:dd:23:4e:be:cb:50:96:77:
         6d:4d:7f:b4
-----BEGIN CERTIFICATE-----
MIIEQTCCAymgAwIBAgIIH+P3pUdcnZYwDQYJKoZIhvcNAQEFBQAwYTEXMBUGCgmS
JomT8ixkARkWB2V4YW1wbGUxHDAaBgoJkiaJk/IsZAEDFAx0ZXN0QGV4YW1wbGUx
KDAmBgNVBAMTH1Rlc3QgQ2VydGlmeWluZyBJbnRlcm1lZGlhdGUgQ0EwHhcNMTUw
NDMwMDczMDA0WhcNMTYwNDI5MDczMDA0WjBVMRcwFQYKCZImiZPyLGQBGRYHZXhh
bXBsZTEgMB4GCgmSJomT8ixkAQMUEHRlc3RAZXhhbXBsZS5vcmcxGDAWBgNVBAMT
D3d3dy5leGFtcGxlLm9yZzCCASIwDQYJKoZIhvcNAQEBBQADggEPADCCAQoCggEB
ANkdW8+L1dfHIkHCvIpmTYFfK4f/sT7DUWLTRCKBrD++u1rel9padvYAMUT4aqZb
KqBrLZi855ofZ0yCN1FYfmRDnozMuaq46fKde6MNgP24Eq/uMp6iQ3oDWtBmPQ/B
shmYByVXbnj7yd3M22vroKNvkdlGUe0kXT0H2I3RTgFzIbEK/jc3jF4qpMisSLZJ
vxVnmYQ572Lj2mZXnI4oahXv5gjrF58hdnAhDeV+tcsGD1oHuv3Q3x3L8Fk7AfDO
/Nj09s1loPSHecfTWi7aJlHopHSWLhxYE4ocuav9E4El0qNckm2lLh4YQzyJ+HW2
xvNclJ1zsYaoGh42K87Ww/0CAwEAAaOCAQcwggEDMBEGA1UdIAQKMAgwBgYEVR0g
ADAdBgNVHQ4EFgQUc16msNtuSyfMhADHk8kQ3H9nmxcwZQYDVR0jBF4wXIAUdlix
4yH+MkhQMlkB2oYyfFch+TKhOqQ4MDYxFzAVBgoJkiaJk/IsZAEZFgdleGFtcGxl
MRswGQYDVQQDExJUZXN0IENlcnRpZnlpbmcgQ0GCCBI3lKePEdLoMCUGA1UdEQQe
MByCDSouZXhhbXBsZS5vcmeCC2V4YW1wbGUub3JnMAkGA1UdEwQCMAAwNgYJYIZI
AYb4QgENBCkWJ1Rlc3RpbmcgQ2VydGlmaWNhdGUgZm9yIHd3dy5leGFtcGxlLm9y
ZzANBgkqhkiG9w0BAQUFAAOCAQEAUF+WtNDmMEOwwkaDa0I3FEXKetSQaLF+F1ox
gIq7DMb3rAHpg8jBvIBSmCV8Br0Xf1JG2EyJ4Ls1LjJun62qCMPvFkjKqiHt9mAf
7t/8DXcizaARAOMa9z6J+49M7couFJWx4jiuUDZzb02wO3gA917fyK+2ww2Z17Q0
UEFVqqXun1udszVhQf5zVux8MQKed5WwbG3KeMkVYt9MTnwSBaaZ+k0eeNu0xAIf
O4jbv8aas5PL3H6lG2bCcsi+FfT8lPAkzUg+EpW8HjqCT19lrn8qmtLx1ELs/Vhq
sV9BGPkcj78e3nwWSbWSokCg4vO4kLYPFN0jTr7LUJZ3bU1/tA==
-----END CERTIFICATE-----
