Certificate:
    Data:
        Version: 3 (0x2)
        Serial Number: 12697129349094717146 (0xb03543dee7fa36da)
    Signature Algorithm: sha1WithRSAEncryption
        Issuer: DC=com, DC=example, CN=Test Certifying CA
        Validity
            Not Before: Apr 24 06:44:30 2015 GMT
            Not After : Apr 23 06:44:30 2016 GMT
        Subject: DC=com, DC=example/mail=ATS@example.com, CN=Test Intermediate CA
        Subject Public Key Info:
            Public Key Algorithm: rsaEncryption
                Public-Key: (2048 bit)
                Modulus:
                    00:d2:a1:95:32:e2:55:ae:5f:eb:8c:43:d4:d9:88:
                    9c:b9:c8:08:08:80:45:9f:12:8f:f1:b8:b7:c1:94:
                    dc:e0:ad:57:b0:f1:c1:9e:00:ed:2f:6e:d1:34:78:
                    c3:ef:52:61:dc:32:28:2d:98:55:e8:02:df:a7:e3:
                    e6:ee:4a:cd:62:b5:2e:61:1e:0e:0d:ff:5f:8c:2a:
                    84:1e:dc:37:77:22:51:1c:98:cc:ef:ee:a6:a0:ec:
                    eb:79:a7:4f:98:3a:ea:01:90:0d:2d:1b:e6:6c:a3:
                    8d:f1:91:8f:f5:f1:0e:fa:7b:b1:7d:cb:93:8c:82:
                    b2:78:22:e5:13:43:3d:71:a6:25:41:72:05:47:a7:
                    da:2e:95:ae:da:94:72:fd:73:e8:b1:f2:88:8a:03:
                    90:c5:f7:d3:a4:90:a5:2d:7f:0d:e8:97:b6:ba:29:
                    89:d4:f5:1f:e8:f9:c3:f2:3f:0f:ce:6a:a4:2e:00:
                    9b:ec:bd:1a:ea:73:e0:e6:8f:b8:ad:2c:b0:7e:36:
                    76:fa:a6:6f:8e:c3:5b:4a:19:35:a9:08:ea:10:06:
                    d5:86:87:55:37:09:67:20:bf:2a:0f:86:e1:d4:07:
                    39:88:b9:83:d0:c5:e9:97:d4:4c:05:c5:8d:ab:7b:
                    77:7e:ed:36:a9:58:75:31:a1:f5:e3:9e:a9:0d:38:
                    df:39
                Exponent: 65537 (0x10001)
        X509v3 extensions:
            X509v3 Certificate Policies: 
                Policy: X509v3 Any Policy

            X509v3 Subject Key Identifier: 
                8A:97:BF:5D:B4:EE:53:4B:5C:FE:E4:47:DB:93:42:76:26:A4:C7:F9
            X509v3 Authority Key Identifier: 
                keyid:E4:FC:DC:5C:F2:50:F0:98:21:13:1F:05:3E:57:29:5A:47:6A:2B:3B
                DirName:/DC=com/DC=example/CN=Test Certifying CA
                serial:8C:F3:2D:E4:B9:60:96:D0

            X509v3 Key Usage: critical
                Digital Signature, Non Repudiation, Key Encipherment, Data Encipherment, Key Agreement, Certificate Sign, CRL Sign
            X509v3 Basic Constraints: critical
                CA:TRUE
            Netscape Comment: 
                Testing CA Certificate for Test Intermediate CA
    Signature Algorithm: sha1WithRSAEncryption
         19:cd:b6:fb:18:b6:87:14:74:a2:c2:d0:e5:17:7c:af:45:7e:
         31:3d:35:dc:a6:e6:b9:04:13:a8:c6:4b:11:24:f6:98:a8:09:
         23:21:4e:70:f0:1e:62:d3:0d:0c:ec:22:de:18:9c:1b:07:72:
         f2:cc:64:18:b3:6e:fc:39:ec:31:cd:30:40:02:b3:43:bf:b8:
         7f:68:29:23:a0:23:61:32:3c:0b:cf:76:57:e9:09:17:b6:e8:
         ad:13:33:57:cb:14:69:f2:0e:ee:70:8f:ec:fc:e7:a9:00:fe:
         e1:45:83:21:0a:e9:9b:b5:44:24:9b:4a:fd:1b:ab:59:ee:31:
         83:2d:65:74:8c:51:50:1c:85:b2:d5:e1:01:b1:12:b3:5b:dc:
         f8:4f:a5:06:5b:22:e7:7e:60:76:93:0e:08:0e:79:4c:24:6e:
         fe:32:5d:bd:97:66:32:10:92:09:8e:31:4e:9b:bb:36:d7:e3:
         42:0d:4f:e0:f3:77:0a:e1:5a:e4:5d:58:3b:02:df:b0:96:53:
         b7:36:b9:ea:ba:47:61:ad:9e:37:e4:ab:4f:60:dc:5c:cb:78:
         6d:33:9e:6f:4b:10:e3:52:69:da:ea:a5:4e:7a:f5:bc:43:92:
         35:41:9d:f4:ea:8d:a3:cf:d6:cd:07:8d:78:5e:c7:2d:43:30:
         03:20:45:f2
Certificate:
    Data:
        Version: 3 (0x2)
        Serial Number: 12697129349094717146 (0xb03543dee7fa36da)
    Signature Algorithm: sha1WithRSAEncryption
        Issuer: DC=com, DC=example, CN=Test Certifying CA
        Validity
            Not Before: Apr 24 06:44:30 2015 GMT
            Not After : Apr 23 06:44:30 2016 GMT
        Subject: DC=com, DC=example/mail=ATS@example.com, CN=Test Intermediate CA
        Subject Public Key Info:
            Public Key Algorithm: rsaEncryption
                Public-Key: (2048 bit)
                Modulus:
                    00:d2:a1:95:32:e2:55:ae:5f:eb:8c:43:d4:d9:88:
                    9c:b9:c8:08:08:80:45:9f:12:8f:f1:b8:b7:c1:94:
                    dc:e0:ad:57:b0:f1:c1:9e:00:ed:2f:6e:d1:34:78:
                    c3:ef:52:61:dc:32:28:2d:98:55:e8:02:df:a7:e3:
                    e6:ee:4a:cd:62:b5:2e:61:1e:0e:0d:ff:5f:8c:2a:
                    84:1e:dc:37:77:22:51:1c:98:cc:ef:ee:a6:a0:ec:
                    eb:79:a7:4f:98:3a:ea:01:90:0d:2d:1b:e6:6c:a3:
                    8d:f1:91:8f:f5:f1:0e:fa:7b:b1:7d:cb:93:8c:82:
                    b2:78:22:e5:13:43:3d:71:a6:25:41:72:05:47:a7:
                    da:2e:95:ae:da:94:72:fd:73:e8:b1:f2:88:8a:03:
                    90:c5:f7:d3:a4:90:a5:2d:7f:0d:e8:97:b6:ba:29:
                    89:d4:f5:1f:e8:f9:c3:f2:3f:0f:ce:6a:a4:2e:00:
                    9b:ec:bd:1a:ea:73:e0:e6:8f:b8:ad:2c:b0:7e:36:
                    76:fa:a6:6f:8e:c3:5b:4a:19:35:a9:08:ea:10:06:
                    d5:86:87:55:37:09:67:20:bf:2a:0f:86:e1:d4:07:
                    39:88:b9:83:d0:c5:e9:97:d4:4c:05:c5:8d:ab:7b:
                    77:7e:ed:36:a9:58:75:31:a1:f5:e3:9e:a9:0d:38:
                    df:39
                Exponent: 65537 (0x10001)
        X509v3 extensions:
            X509v3 Certificate Policies: 
                Policy: X509v3 Any Policy

            X509v3 Subject Key Identifier: 
                8A:97:BF:5D:B4:EE:53:4B:5C:FE:E4:47:DB:93:42:76:26:A4:C7:F9
            X509v3 Authority Key Identifier: 
                keyid:E4:FC:DC:5C:F2:50:F0:98:21:13:1F:05:3E:57:29:5A:47:6A:2B:3B
                DirName:/DC=com/DC=example/CN=Test Certifying CA
                serial:8C:F3:2D:E4:B9:60:96:D0

            X509v3 Key Usage: critical
                Digital Signature, Non Repudiation, Key Encipherment, Data Encipherment, Key Agreement, Certificate Sign, CRL Sign
            X509v3 Basic Constraints: critical
                CA:TRUE
            Netscape Comment: 
                Testing CA Certificate for Test Intermediate CA
    Signature Algorithm: sha1WithRSAEncryption
         19:cd:b6:fb:18:b6:87:14:74:a2:c2:d0:e5:17:7c:af:45:7e:
         31:3d:35:dc:a6:e6:b9:04:13:a8:c6:4b:11:24:f6:98:a8:09:
         23:21:4e:70:f0:1e:62:d3:0d:0c:ec:22:de:18:9c:1b:07:72:
         f2:cc:64:18:b3:6e:fc:39:ec:31:cd:30:40:02:b3:43:bf:b8:
         7f:68:29:23:a0:23:61:32:3c:0b:cf:76:57:e9:09:17:b6:e8:
         ad:13:33:57:cb:14:69:f2:0e:ee:70:8f:ec:fc:e7:a9:00:fe:
         e1:45:83:21:0a:e9:9b:b5:44:24:9b:4a:fd:1b:ab:59:ee:31:
         83:2d:65:74:8c:51:50:1c:85:b2:d5:e1:01:b1:12:b3:5b:dc:
         f8:4f:a5:06:5b:22:e7:7e:60:76:93:0e:08:0e:79:4c:24:6e:
         fe:32:5d:bd:97:66:32:10:92:09:8e:31:4e:9b:bb:36:d7:e3:
         42:0d:4f:e0:f3:77:0a:e1:5a:e4:5d:58:3b:02:df:b0:96:53:
         b7:36:b9:ea:ba:47:61:ad:9e:37:e4:ab:4f:60:dc:5c:cb:78:
         6d:33:9e:6f:4b:10:e3:52:69:da:ea:a5:4e:7a:f5:bc:43:92:
         35:41:9d:f4:ea:8d:a3:cf:d6:cd:07:8d:78:5e:c7:2d:43:30:
         03:20:45:f2
-----BEGIN CERTIFICATE-----
MIIEUjCCAzqgAwIBAgIJALA1Q97n+jbaMA0GCSqGSIb3DQEBBQUAMEsxEzARBgoJ
kiaJk/IsZAEZFgNjb20xFzAVBgoJkiaJk/IsZAEZFgdleGFtcGxlMRswGQYDVQQD
ExJUZXN0IENlcnRpZnlpbmcgQ0EwHhcNMTUwNDI0MDY0NDMwWhcNMTYwNDIzMDY0
NDMwWjBuMRMwEQYKCZImiZPyLGQBGRYDY29tMRcwFQYKCZImiZPyLGQBGRYHZXhh
bXBsZTEfMB0GCgmSJomT8ixkAQMUD0FUU0BleGFtcGxlLmNvbTEdMBsGA1UEAxMU
VGVzdCBJbnRlcm1lZGlhdGUgQ0EwggEiMA0GCSqGSIb3DQEBAQUAA4IBDwAwggEK
AoIBAQDSoZUy4lWuX+uMQ9TZiJy5yAgIgEWfEo/xuLfBlNzgrVew8cGeAO0vbtE0
eMPvUmHcMigtmFXoAt+n4+buSs1itS5hHg4N/1+MKoQe3Dd3IlEcmMzv7qag7Ot5
p0+YOuoBkA0tG+Zso43xkY/18Q76e7F9y5OMgrJ4IuUTQz1xpiVBcgVHp9oula7a
lHL9c+ix8oiKA5DF99OkkKUtfw3ol7a6KYnU9R/o+cPyPw/OaqQuAJvsvRrqc+Dm
j7itLLB+Nnb6pm+Ow1tKGTWpCOoQBtWGh1U3CWcgvyoPhuHUBzmIuYPQxemX1EwF
xY2re3d+7TapWHUxofXjnqkNON85AgMBAAGjggEUMIIBEDARBgNVHSAECjAIMAYG
BFUdIAAwHQYDVR0OBBYEFIqXv1207lNLXP7kR9uTQnYmpMf5MHsGA1UdIwR0MHKA
FOT83FzyUPCYIRMfBT5XKVpHais7oU+kTTBLMRMwEQYKCZImiZPyLGQBGRYDY29t
MRcwFQYKCZImiZPyLGQBGRYHZXhhbXBsZTEbMBkGA1UEAxMSVGVzdCBDZXJ0aWZ5
aW5nIENBggkAjPMt5LlgltAwDgYDVR0PAQH/BAQDAgH+MA8GA1UdEwEB/wQFMAMB
Af8wPgYJYIZIAYb4QgENBDEWL1Rlc3RpbmcgQ0EgQ2VydGlmaWNhdGUgZm9yIFRl
c3QgSW50ZXJtZWRpYXRlIENBMA0GCSqGSIb3DQEBBQUAA4IBAQAZzbb7GLaHFHSi
wtDlF3yvRX4xPTXcpua5BBOoxksRJPaYqAkjIU5w8B5i0w0M7CLeGJwbB3LyzGQY
s278OewxzTBAArNDv7h/aCkjoCNhMjwLz3ZX6QkXtuitEzNXyxRp8g7ucI/s/Oep
AP7hRYMhCumbtUQkm0r9G6tZ7jGDLWV0jFFQHIWy1eEBsRKzW9z4T6UGWyLnfmB2
kw4IDnlMJG7+Ml29l2YyEJIJjjFOm7s21+NCDU/g83cK4VrkXVg7At+wllO3Nrnq
ukdhrZ435KtPYNxcy3htM55vSxDjUmna6qVOevW8Q5I1QZ306o2jz9bNB414Xsct
QzADIEXy
-----END CERTIFICATE-----
Certificate:
    Data:
        Version: 3 (0x2)
        Serial Number: 10156512045036508880 (0x8cf32de4b96096d0)
    Signature Algorithm: sha1WithRSAEncryption
        Issuer: DC=com, DC=example, CN=Test Certifying CA
        Validity
            Not Before: Apr 24 06:44:29 2015 GMT
            Not After : Apr 23 06:44:29 2016 GMT
        Subject: DC=com, DC=example, CN=Test Certifying CA
        Subject Public Key Info:
            Public Key Algorithm: rsaEncryption
                Public-Key: (2048 bit)
                Modulus:
                    00:bf:48:00:07:05:72:09:50:42:11:ca:10:65:41:
                    41:fd:1d:29:3e:01:21:34:16:8c:6e:03:e2:da:15:
                    38:b9:01:da:55:76:94:c8:94:94:d9:fd:ed:00:83:
                    24:79:ad:62:89:61:25:6b:05:e6:aa:60:54:bd:c1:
                    16:2d:ed:3f:fd:50:e2:15:05:81:44:63:3c:c6:0b:
                    fe:cf:01:68:cb:11:7c:c8:08:b3:bd:a6:62:65:a1:
                    e6:c8:cd:af:b6:36:8b:cc:b3:e0:0a:e6:ea:9c:ea:
                    18:0e:b4:ea:79:35:a2:23:dd:74:99:29:98:96:5f:
                    62:54:2e:3a:df:14:19:96:c7:79:18:d6:49:ac:dc:
                    42:f9:bc:6e:80:c1:bc:c6:d3:d8:8f:c4:fa:a0:ad:
                    f8:77:91:da:0e:32:96:e6:be:c5:b8:3d:cf:94:aa:
                    07:b2:25:a7:08:6b:68:f3:75:bf:d1:a0:30:34:03:
                    bf:12:98:be:bb:29:f0:a0:fe:24:64:84:07:c7:1c:
                    cf:7b:de:e2:0d:3a:dc:00:40:f0:e5:4f:f5:c2:95:
                    cd:7d:33:f6:70:6c:15:87:2f:d5:c4:e9:42:b8:7f:
                    2c:71:64:57:f4:88:1d:0e:e1:62:a4:7a:40:2f:83:
                    36:f2:f3:c8:c0:de:74:06:14:8e:b4:dd:be:31:e2:
                    7b:83
                Exponent: 65537 (0x10001)
        X509v3 extensions:
            X509v3 Subject Key Identifier: 
                E4:FC:DC:5C:F2:50:F0:98:21:13:1F:05:3E:57:29:5A:47:6A:2B:3B
            X509v3 Authority Key Identifier: 
                keyid:E4:FC:DC:5C:F2:50:F0:98:21:13:1F:05:3E:57:29:5A:47:6A:2B:3B
                DirName:/DC=com/DC=example/CN=Test Certifying CA
                serial:8C:F3:2D:E4:B9:60:96:D0

            X509v3 Key Usage: 
                Digital Signature, Non Repudiation, Key Encipherment, Data Encipherment, Key Agreement, Certificate Sign, CRL Sign
            X509v3 Basic Constraints: critical
                CA:TRUE
            Netscape Comment: 
                Testing CA Certificate
    Signature Algorithm: sha1WithRSAEncryption
         a9:fe:6b:fa:bc:59:72:a8:d5:60:58:df:6e:9c:21:c4:e3:3b:
         d8:2c:d7:22:3c:c4:78:69:68:e2:b1:f1:c5:c8:8d:3e:10:06:
         5a:38:d4:92:dc:ae:81:97:67:91:20:56:9e:2a:3f:77:1c:48:
         01:a6:34:e3:bc:5e:59:14:ce:f8:01:5d:a4:e2:f9:e6:38:8c:
         d4:83:34:c7:ad:73:15:b7:16:c5:fa:11:c2:f9:53:59:dc:dd:
         e2:64:7e:32:29:75:c4:ea:68:03:d8:76:b0:dc:16:04:f4:98:
         c4:25:84:6a:b5:43:10:2d:4b:c5:04:85:51:92:40:5f:37:90:
         3a:25:92:ff:64:e2:71:7d:11:51:b6:1e:d6:a8:66:20:ef:4a:
         4d:d7:4f:0a:97:e4:17:66:1c:1c:84:cd:8c:72:3d:07:4c:5b:
         f2:3a:51:6f:ac:01:a1:59:79:4e:34:2c:42:5e:74:92:e3:fb:
         32:38:fc:7c:73:b9:12:27:b8:1d:a8:04:55:53:0f:2f:37:8b:
         e1:4c:5a:4d:aa:62:04:06:cf:21:3b:21:6d:a3:b3:11:22:b7:
         5c:1c:94:97:fd:ab:66:cf:05:64:f0:fa:e2:95:30:32:d5:c8:
         59:1d:f2:cf:cd:21:cf:31:1d:b2:52:43:e0:c1:82:a3:d5:65:
         74:db:4e:70
-----BEGIN CERTIFICATE-----
MIID/jCCAuagAwIBAgIJAIzzLeS5YJbQMA0GCSqGSIb3DQEBBQUAMEsxEzARBgoJ
kiaJk/IsZAEZFgNjb20xFzAVBgoJkiaJk/IsZAEZFgdleGFtcGxlMRswGQYDVQQD
ExJUZXN0IENlcnRpZnlpbmcgQ0EwHhcNMTUwNDI0MDY0NDI5WhcNMTYwNDIzMDY0
NDI5WjBLMRMwEQYKCZImiZPyLGQBGRYDY29tMRcwFQYKCZImiZPyLGQBGRYHZXhh
bXBsZTEbMBkGA1UEAxMSVGVzdCBDZXJ0aWZ5aW5nIENBMIIBIjANBgkqhkiG9w0B
AQEFAAOCAQ8AMIIBCgKCAQEAv0gABwVyCVBCEcoQZUFB/R0pPgEhNBaMbgPi2hU4
uQHaVXaUyJSU2f3tAIMkea1iiWElawXmqmBUvcEWLe0//VDiFQWBRGM8xgv+zwFo
yxF8yAizvaZiZaHmyM2vtjaLzLPgCubqnOoYDrTqeTWiI910mSmYll9iVC463xQZ
lsd5GNZJrNxC+bxugMG8xtPYj8T6oK34d5HaDjKW5r7FuD3PlKoHsiWnCGto83W/
0aAwNAO/Epi+uynwoP4kZIQHxxzPe97iDTrcAEDw5U/1wpXNfTP2cGwVhy/VxOlC
uH8scWRX9IgdDuFipHpAL4M28vPIwN50BhSOtN2+MeJ7gwIDAQABo4HkMIHhMB0G
A1UdDgQWBBTk/Nxc8lDwmCETHwU+VylaR2orOzB7BgNVHSMEdDBygBTk/Nxc8lDw
mCETHwU+VylaR2orO6FPpE0wSzETMBEGCgmSJomT8ixkARkWA2NvbTEXMBUGCgmS
JomT8ixkARkWB2V4YW1wbGUxGzAZBgNVBAMTElRlc3QgQ2VydGlmeWluZyBDQYIJ
AIzzLeS5YJbQMAsGA1UdDwQEAwIB/jAPBgNVHRMBAf8EBTADAQH/MCUGCWCGSAGG
+EIBDQQYFhZUZXN0aW5nIENBIENlcnRpZmljYXRlMA0GCSqGSIb3DQEBBQUAA4IB
AQCp/mv6vFlyqNVgWN9unCHE4zvYLNciPMR4aWjisfHFyI0+EAZaONSS3K6Bl2eR
IFaeKj93HEgBpjTjvF5ZFM74AV2k4vnmOIzUgzTHrXMVtxbF+hHC+VNZ3N3iZH4y
KXXE6mgD2Haw3BYE9JjEJYRqtUMQLUvFBIVRkkBfN5A6JZL/ZOJxfRFRth7WqGYg
70pN108Kl+QXZhwchM2Mcj0HTFvyOlFvrAGhWXlONCxCXnSS4/syOPx8c7kSJ7gd
qARVUw8vN4vhTFpNqmIEBs8hOyFto7MRIrdcHJSX/atmzwVk8PrilTAy1chZHfLP
zSHPMR2yUkPgwYKj1WV0205w
-----END CERTIFICATE-----
