-----BEGIN RSA PRIVATE KEY-----
MIIEowIBAAKCAQEA0qGVMuJVrl/rjEPU2YicucgICIBFnxKP8bi3wZTc4K1XsPHB
ngDtL27RNHjD71Jh3DIoLZhV6ALfp+Pm7krNYrUuYR4ODf9fjCqEHtw3dyJRHJjM
7+6moOzreadPmDrqAZANLRvmbKON8ZGP9fEO+nuxfcuTjIKyeCLlE0M9caYlQXIF
R6faLpWu2pRy/XPosfKIigOQxffTpJClLX8N6Je2uimJ1PUf6PnD8j8PzmqkLgCb
7L0a6nPg5o+4rSywfjZ2+qZvjsNbShk1qQjqEAbVhodVNwlnIL8qD4bh1Ac5iLmD
0MXpl9RMBcWNq3t3fu02qVh1MaH1456pDTjfOQIDAQABAoIBAB+eXfVLgK0yfPuL
WzJkjZJd8sbD6q+ca7tPjVYj8JxRqS5IvFXpsbFDI2iLEG6moUYayWk+yvaPJ9/e
GFaBKB+/Lv0pM9bqFP/HihnP2QurPR3b2jfSTXUu25JhiVNC1MnzQ+cXnxmD29T9
kuzKiQMU+mn122pmXEAojNa9a0XZ81ZBzeQNDqag4nSs3J2wuCOCfSA5p61Q0eI1
AT3c7BDxRmdtJJfuZdwS8N7VQKoikFW9q9dGCxkcXcTmhOdmIiVY/0w8REDzvdNL
4QOpSaG20aodaBazcUpOziLbIOaFpVGhjGsg+mu7c41D+0nOCE82qgKCruwTewYf
tDHVE/kCgYEA7SsdhB/aZ86bkDT8/nk2Fm8uJHJzBPK02i/+CLdLRHf1ErJTZHrw
yWb0vkpRN6eGXKDkKef0tDSWDTkaUDoR9gL5lo9ZCrpjdeHP5xBbLsZBdqfnbL8M
7iYTxOynoSqHYXKegYffqERIPQ/wjPt8yuOflN104W1y/Nmb8jenLXsCgYEA41sM
oQ/JNoiVLhAkQAryQlsOEUXc2AsJ9L6osRmqV8gIZunsa3pPVmQ66gbnj2le7s9P
TWhldSX7NVRadGvykCG+97PPR9ymSkq7yzMVKN1n0DH4RZ9/xwzh0hI8x8Zrz8c8
1e0pxEzjj7+QL/K7U9c7R/CCYB6tC2utMvgXtdsCgYBEQGAiIbiMnxyNh3I3GVLD
agNxYa5QAjihgaYtg/IZJhxU4RS2mdqpWwObr29oAMHd7j87ABGfunJkI8a6x7tb
fMeu2FnbiIAO8IkQCdjzwQIdz3v+A40JC9Qsm54x9zc2h/GtfRiUJ/JSAEBNkiH7
kT3fbUuxg/nPYiBKuFFX+QKBgBN0bxg5KZapCVrvtqpkRWa4M/P2bnduOmPfDMBa
2eC5FT75NWndBXz3BrOP87Cp652zz61oCYaEwYJGvZbIxfDfcl/v2wTjNLeWvYsd
y+m7SG7gV8ZdZ6m4yHoZZWoS6JbXDbWgnbpWegKK+eOgebcq67+0LPPcrCIWDLQX
1q+RAoGBAKJIfTTSJyEIZVzuwifubIlF10aBju2FLErDN5EGUSrhpQ4Oy4q5Ihr9
yDiJi9kCVuC8ugcFJzd6DvO9V0s5VbRTEFYw6zZM6LigymflYHmjZvuax5llvwHY
osNWKcUpVHS0f/ywK+qZJfqCyolage+Mi7RhuF2p2qiXIANMaky9
-----END RSA PRIVATE KEY-----
Certificate:
    Data:
        Version: 3 (0x2)
        Serial Number: 12697129349094717146 (0xb03543dee7fa36da)
    Signature Algorithm: sha1WithRSAEncryption
        Issuer: DC=com, DC=example, CN=Test Certifying CA
        Validity
            Not Before: Apr 24 06:44:30 2015 GMT
            Not After : Apr 23 06:44:30 2016 GMT
        Subject: DC=com, DC=example/mail=ATS@example.com, CN=Test Intermediate CA
        Subject Public Key Info:
            Public Key Algorithm: rsaEncryption
                Public-Key: (2048 bit)
                Modulus:
                    00:d2:a1:95:32:e2:55:ae:5f:eb:8c:43:d4:d9:88:
                    9c:b9:c8:08:08:80:45:9f:12:8f:f1:b8:b7:c1:94:
                    dc:e0:ad:57:b0:f1:c1:9e:00:ed:2f:6e:d1:34:78:
                    c3:ef:52:61:dc:32:28:2d:98:55:e8:02:df:a7:e3:
                    e6:ee:4a:cd:62:b5:2e:61:1e:0e:0d:ff:5f:8c:2a:
                    84:1e:dc:37:77:22:51:1c:98:cc:ef:ee:a6:a0:ec:
                    eb:79:a7:4f:98:3a:ea:01:90:0d:2d:1b:e6:6c:a3:
                    8d:f1:91:8f:f5:f1:0e:fa:7b:b1:7d:cb:93:8c:82:
                    b2:78:22:e5:13:43:3d:71:a6:25:41:72:05:47:a7:
                    da:2e:95:ae:da:94:72:fd:73:e8:b1:f2:88:8a:03:
                    90:c5:f7:d3:a4:90:a5:2d:7f:0d:e8:97:b6:ba:29:
                    89:d4:f5:1f:e8:f9:c3:f2:3f:0f:ce:6a:a4:2e:00:
                    9b:ec:bd:1a:ea:73:e0:e6:8f:b8:ad:2c:b0:7e:36:
                    76:fa:a6:6f:8e:c3:5b:4a:19:35:a9:08:ea:10:06:
                    d5:86:87:55:37:09:67:20:bf:2a:0f:86:e1:d4:07:
                    39:88:b9:83:d0:c5:e9:97:d4:4c:05:c5:8d:ab:7b:
                    77:7e:ed:36:a9:58:75:31:a1:f5:e3:9e:a9:0d:38:
                    df:39
                Exponent: 65537 (0x10001)
        X509v3 extensions:
            X509v3 Certificate Policies: 
                Policy: X509v3 Any Policy

            X509v3 Subject Key Identifier: 
                8A:97:BF:5D:B4:EE:53:4B:5C:FE:E4:47:DB:93:42:76:26:A4:C7:F9
            X509v3 Authority Key Identifier: 
                keyid:E4:FC:DC:5C:F2:50:F0:98:21:13:1F:05:3E:57:29:5A:47:6A:2B:3B
                DirName:/DC=com/DC=example/CN=Test Certifying CA
                serial:8C:F3:2D:E4:B9:60:96:D0

            X509v3 Key Usage: critical
                Digital Signature, Non Repudiation, Key Encipherment, Data Encipherment, Key Agreement, Certificate Sign, CRL Sign
            X509v3 Basic Constraints: critical
                CA:TRUE
            Netscape Comment: 
                Testing CA Certificate for Test Intermediate CA
    Signature Algorithm: sha1WithRSAEncryption
         19:cd:b6:fb:18:b6:87:14:74:a2:c2:d0:e5:17:7c:af:45:7e:
         31:3d:35:dc:a6:e6:b9:04:13:a8:c6:4b:11:24:f6:98:a8:09:
         23:21:4e:70:f0:1e:62:d3:0d:0c:ec:22:de:18:9c:1b:07:72:
         f2:cc:64:18:b3:6e:fc:39:ec:31:cd:30:40:02:b3:43:bf:b8:
         7f:68:29:23:a0:23:61:32:3c:0b:cf:76:57:e9:09:17:b6:e8:
         ad:13:33:57:cb:14:69:f2:0e:ee:70:8f:ec:fc:e7:a9:00:fe:
         e1:45:83:21:0a:e9:9b:b5:44:24:9b:4a:fd:1b:ab:59:ee:31:
         83:2d:65:74:8c:51:50:1c:85:b2:d5:e1:01:b1:12:b3:5b:dc:
         f8:4f:a5:06:5b:22:e7:7e:60:76:93:0e:08:0e:79:4c:24:6e:
         fe:32:5d:bd:97:66:32:10:92:09:8e:31:4e:9b:bb:36:d7:e3:
         42:0d:4f:e0:f3:77:0a:e1:5a:e4:5d:58:3b:02:df:b0:96:53:
         b7:36:b9:ea:ba:47:61:ad:9e:37:e4:ab:4f:60:dc:5c:cb:78:
         6d:33:9e:6f:4b:10:e3:52:69:da:ea:a5:4e:7a:f5:bc:43:92:
         35:41:9d:f4:ea:8d:a3:cf:d6:cd:07:8d:78:5e:c7:2d:43:30:
         03:20:45:f2
Certificate:
    Data:
        Version: 3 (0x2)
        Serial Number: 12697129349094717146 (0xb03543dee7fa36da)
    Signature Algorithm: sha1WithRSAEncryption
        Issuer: DC=com, DC=example, CN=Test Certifying CA
        Validity
            Not Before: Apr 24 06:44:30 2015 GMT
            Not After : Apr 23 06:44:30 2016 GMT
        Subject: DC=com, DC=example/mail=ATS@example.com, CN=Test Intermediate CA
        Subject Public Key Info:
            Public Key Algorithm: rsaEncryption
                Public-Key: (2048 bit)
                Modulus:
                    00:d2:a1:95:32:e2:55:ae:5f:eb:8c:43:d4:d9:88:
                    9c:b9:c8:08:08:80:45:9f:12:8f:f1:b8:b7:c1:94:
                    dc:e0:ad:57:b0:f1:c1:9e:00:ed:2f:6e:d1:34:78:
                    c3:ef:52:61:dc:32:28:2d:98:55:e8:02:df:a7:e3:
                    e6:ee:4a:cd:62:b5:2e:61:1e:0e:0d:ff:5f:8c:2a:
                    84:1e:dc:37:77:22:51:1c:98:cc:ef:ee:a6:a0:ec:
                    eb:79:a7:4f:98:3a:ea:01:90:0d:2d:1b:e6:6c:a3:
                    8d:f1:91:8f:f5:f1:0e:fa:7b:b1:7d:cb:93:8c:82:
                    b2:78:22:e5:13:43:3d:71:a6:25:41:72:05:47:a7:
                    da:2e:95:ae:da:94:72:fd:73:e8:b1:f2:88:8a:03:
                    90:c5:f7:d3:a4:90:a5:2d:7f:0d:e8:97:b6:ba:29:
                    89:d4:f5:1f:e8:f9:c3:f2:3f:0f:ce:6a:a4:2e:00:
                    9b:ec:bd:1a:ea:73:e0:e6:8f:b8:ad:2c:b0:7e:36:
                    76:fa:a6:6f:8e:c3:5b:4a:19:35:a9:08:ea:10:06:
                    d5:86:87:55:37:09:67:20:bf:2a:0f:86:e1:d4:07:
                    39:88:b9:83:d0:c5:e9:97:d4:4c:05:c5:8d:ab:7b:
                    77:7e:ed:36:a9:58:75:31:a1:f5:e3:9e:a9:0d:38:
                    df:39
                Exponent: 65537 (0x10001)
        X509v3 extensions:
            X509v3 Certificate Policies: 
                Policy: X509v3 Any Policy

            X509v3 Subject Key Identifier: 
                8A:97:BF:5D:B4:EE:53:4B:5C:FE:E4:47:DB:93:42:76:26:A4:C7:F9
            X509v3 Authority Key Identifier: 
                keyid:E4:FC:DC:5C:F2:50:F0:98:21:13:1F:05:3E:57:29:5A:47:6A:2B:3B
                DirName:/DC=com/DC=example/CN=Test Certifying CA
                serial:8C:F3:2D:E4:B9:60:96:D0

            X509v3 Key Usage: critical
                Digital Signature, Non Repudiation, Key Encipherment, Data Encipherment, Key Agreement, Certificate Sign, CRL Sign
            X509v3 Basic Constraints: critical
                CA:TRUE
            Netscape Comment: 
                Testing CA Certificate for Test Intermediate CA
    Signature Algorithm: sha1WithRSAEncryption
         19:cd:b6:fb:18:b6:87:14:74:a2:c2:d0:e5:17:7c:af:45:7e:
         31:3d:35:dc:a6:e6:b9:04:13:a8:c6:4b:11:24:f6:98:a8:09:
         23:21:4e:70:f0:1e:62:d3:0d:0c:ec:22:de:18:9c:1b:07:72:
         f2:cc:64:18:b3:6e:fc:39:ec:31:cd:30:40:02:b3:43:bf:b8:
         7f:68:29:23:a0:23:61:32:3c:0b:cf:76:57:e9:09:17:b6:e8:
         ad:13:33:57:cb:14:69:f2:0e:ee:70:8f:ec:fc:e7:a9:00:fe:
         e1:45:83:21:0a:e9:9b:b5:44:24:9b:4a:fd:1b:ab:59:ee:31:
         83:2d:65:74:8c:51:50:1c:85:b2:d5:e1:01:b1:12:b3:5b:dc:
         f8:4f:a5:06:5b:22:e7:7e:60:76:93:0e:08:0e:79:4c:24:6e:
         fe:32:5d:bd:97:66:32:10:92:09:8e:31:4e:9b:bb:36:d7:e3:
         42:0d:4f:e0:f3:77:0a:e1:5a:e4:5d:58:3b:02:df:b0:96:53:
         b7:36:b9:ea:ba:47:61:ad:9e:37:e4:ab:4f:60:dc:5c:cb:78:
         6d:33:9e:6f:4b:10:e3:52:69:da:ea:a5:4e:7a:f5:bc:43:92:
         35:41:9d:f4:ea:8d:a3:cf:d6:cd:07:8d:78:5e:c7:2d:43:30:
         03:20:45:f2
-----BEGIN CERTIFICATE-----
MIIEUjCCAzqgAwIBAgIJALA1Q97n+jbaMA0GCSqGSIb3DQEBBQUAMEsxEzARBgoJ
kiaJk/IsZAEZFgNjb20xFzAVBgoJkiaJk/IsZAEZFgdleGFtcGxlMRswGQYDVQQD
ExJUZXN0IENlcnRpZnlpbmcgQ0EwHhcNMTUwNDI0MDY0NDMwWhcNMTYwNDIzMDY0
NDMwWjBuMRMwEQYKCZImiZPyLGQBGRYDY29tMRcwFQYKCZImiZPyLGQBGRYHZXhh
bXBsZTEfMB0GCgmSJomT8ixkAQMUD0FUU0BleGFtcGxlLmNvbTEdMBsGA1UEAxMU
VGVzdCBJbnRlcm1lZGlhdGUgQ0EwggEiMA0GCSqGSIb3DQEBAQUAA4IBDwAwggEK
AoIBAQDSoZUy4lWuX+uMQ9TZiJy5yAgIgEWfEo/xuLfBlNzgrVew8cGeAO0vbtE0
eMPvUmHcMigtmFXoAt+n4+buSs1itS5hHg4N/1+MKoQe3Dd3IlEcmMzv7qag7Ot5
p0+YOuoBkA0tG+Zso43xkY/18Q76e7F9y5OMgrJ4IuUTQz1xpiVBcgVHp9oula7a
lHL9c+ix8oiKA5DF99OkkKUtfw3ol7a6KYnU9R/o+cPyPw/OaqQuAJvsvRrqc+Dm
j7itLLB+Nnb6pm+Ow1tKGTWpCOoQBtWGh1U3CWcgvyoPhuHUBzmIuYPQxemX1EwF
xY2re3d+7TapWHUxofXjnqkNON85AgMBAAGjggEUMIIBEDARBgNVHSAECjAIMAYG
BFUdIAAwHQYDVR0OBBYEFIqXv1207lNLXP7kR9uTQnYmpMf5MHsGA1UdIwR0MHKA
FOT83FzyUPCYIRMfBT5XKVpHais7oU+kTTBLMRMwEQYKCZImiZPyLGQBGRYDY29t
MRcwFQYKCZImiZPyLGQBGRYHZXhhbXBsZTEbMBkGA1UEAxMSVGVzdCBDZXJ0aWZ5
aW5nIENBggkAjPMt5LlgltAwDgYDVR0PAQH/BAQDAgH+MA8GA1UdEwEB/wQFMAMB
Af8wPgYJYIZIAYb4QgENBDEWL1Rlc3RpbmcgQ0EgQ2VydGlmaWNhdGUgZm9yIFRl
c3QgSW50ZXJtZWRpYXRlIENBMA0GCSqGSIb3DQEBBQUAA4IBAQAZzbb7GLaHFHSi
wtDlF3yvRX4xPTXcpua5BBOoxksRJPaYqAkjIU5w8B5i0w0M7CLeGJwbB3LyzGQY
s278OewxzTBAArNDv7h/aCkjoCNhMjwLz3ZX6QkXtuitEzNXyxRp8g7ucI/s/Oep
AP7hRYMhCumbtUQkm0r9G6tZ7jGDLWV0jFFQHIWy1eEBsRKzW9z4T6UGWyLnfmB2
kw4IDnlMJG7+Ml29l2YyEJIJjjFOm7s21+NCDU/g83cK4VrkXVg7At+wllO3Nrnq
ukdhrZ435KtPYNxcy3htM55vSxDjUmna6qVOevW8Q5I1QZ306o2jz9bNB414Xsct
QzADIEXy
-----END CERTIFICATE-----
